target datalayout = "e-m:e-p270:32:32-p271:32:32-p272:64:64-i64:64-i128:128-f80:128-n8:16:32:64-S128"
target triple = "x86_64-unknown-linux-gnu"

%struct.anon = type { ptr, ptr, ptr, ptr, i8, i32 }
%struct.__va_list_tag = type { i32, i32, ptr, ptr }

@SPT = internal global %struct.anon zeroinitializer, align 8
@.str = private unnamed_addr constant [3 x i8] c"%s\00", align 1

; Function Attrs: nounwind uwtable
define internal i64 @spt_min(i64 noundef %a, i64 noundef %b) #0 {
entry:
  %a.addr = alloca i64, align 8
  %b.addr = alloca i64, align 8
  store i64 %a, ptr %a.addr, align 8
  store i64 %b, ptr %b.addr, align 8
  %0 = load i64, ptr %a.addr, align 8
  %1 = load i64, ptr %b.addr, align 8
  %cmp = icmp ult i64 %0, %1
  br i1 %cmp, label %cond.true, label %cond.false

cond.true:                                        ; preds = %entry
  %2 = load i64, ptr %a.addr, align 8
  br label %cond.end

cond.false:                                       ; preds = %entry
  %3 = load i64, ptr %b.addr, align 8
  br label %cond.end

cond.end:                                         ; preds = %cond.false, %cond.true
  %cond = phi i64 [ %2, %cond.true ], [ %3, %cond.false ]
  ret i64 %cond
}

; Function Attrs: nounwind uwtable
define dso_local void @setproctitle(ptr noundef %fmt, ...) #0 {
entry:
  %fmt.addr = alloca ptr, align 8
  %buf = alloca [256 x i8], align 16
  %ap = alloca [1 x %struct.__va_list_tag], align 16
  %nul = alloca ptr, align 8
  %len = alloca i32, align 4
  %error = alloca i32, align 4
  store ptr %fmt, ptr %fmt.addr, align 8
  %0 = load ptr, ptr getelementptr inbounds (%struct.anon, ptr @SPT, i32 0, i32 1), align 8
  %tobool = icmp ne ptr %0, null
  br i1 %tobool, label %if.end, label %if.then

if.then:                                          ; preds = %entry
  br label %return

if.end:                                           ; preds = %entry
  %1 = load ptr, ptr %fmt.addr, align 8
  %tobool1 = icmp ne ptr %1, null
  br i1 %tobool1, label %if.then2, label %if.else

if.then2:                                         ; preds = %if.end
  %arraydecay = getelementptr inbounds [1 x %struct.__va_list_tag], ptr %ap, i64 0, i64 0
  call void @llvm.va_start.p0(ptr %arraydecay)
  %arraydecay3 = getelementptr inbounds [256 x i8], ptr %buf, i64 0, i64 0
  %2 = load ptr, ptr %fmt.addr, align 8
  %arraydecay4 = getelementptr inbounds [1 x %struct.__va_list_tag], ptr %ap, i64 0, i64 0
  %call = call i32 @vsnprintf(ptr noundef %arraydecay3, i64 noundef 256, ptr noundef %2, ptr noundef %arraydecay4) #8
  store i32 %call, ptr %len, align 4
  %arraydecay5 = getelementptr inbounds [1 x %struct.__va_list_tag], ptr %ap, i64 0, i64 0
  call void @llvm.va_end.p0(ptr %arraydecay5)
  br label %if.end8

if.else:                                          ; preds = %if.end
  %arraydecay6 = getelementptr inbounds [256 x i8], ptr %buf, i64 0, i64 0
  %3 = load ptr, ptr @SPT, align 8
  %call7 = call i32 (ptr, i64, ptr, ...) @snprintf(ptr noundef %arraydecay6, i64 noundef 256, ptr noundef @.str, ptr noundef %3) #8
  store i32 %call7, ptr %len, align 4
  br label %if.end8

if.end8:                                          ; preds = %if.else, %if.then2
  %4 = load i32, ptr %len, align 4
  %cmp = icmp sle i32 %4, 0
  br i1 %cmp, label %if.then9, label %if.end11

if.then9:                                         ; preds = %if.end8
  %call10 = call ptr @__errno_location() #10
  %5 = load i32, ptr %call10, align 4
  store i32 %5, ptr %error, align 4
  br label %error40

if.end11:                                         ; preds = %if.end8
  %6 = load i8, ptr getelementptr inbounds (%struct.anon, ptr @SPT, i32 0, i32 4), align 8
  %tobool12 = trunc i8 %6 to i1
  br i1 %tobool12, label %if.else14, label %if.then13

if.then13:                                        ; preds = %if.end11
  %7 = load ptr, ptr getelementptr inbounds (%struct.anon, ptr @SPT, i32 0, i32 1), align 8
  %8 = load ptr, ptr getelementptr inbounds (%struct.anon, ptr @SPT, i32 0, i32 2), align 8
  %9 = load ptr, ptr getelementptr inbounds (%struct.anon, ptr @SPT, i32 0, i32 1), align 8
  %sub.ptr.lhs.cast = ptrtoint ptr %8 to i64
  %sub.ptr.rhs.cast = ptrtoint ptr %9 to i64
  %sub.ptr.sub = sub i64 %sub.ptr.lhs.cast, %sub.ptr.rhs.cast
  call void @llvm.memset.p0.i64(ptr align 1 %7, i8 0, i64 %sub.ptr.sub, i1 false)
  store i8 1, ptr getelementptr inbounds (%struct.anon, ptr @SPT, i32 0, i32 4), align 8
  br label %if.end19

if.else14:                                        ; preds = %if.end11
  %10 = load ptr, ptr getelementptr inbounds (%struct.anon, ptr @SPT, i32 0, i32 1), align 8
  %11 = load ptr, ptr getelementptr inbounds (%struct.anon, ptr @SPT, i32 0, i32 2), align 8
  %12 = load ptr, ptr getelementptr inbounds (%struct.anon, ptr @SPT, i32 0, i32 1), align 8
  %sub.ptr.lhs.cast15 = ptrtoint ptr %11 to i64
  %sub.ptr.rhs.cast16 = ptrtoint ptr %12 to i64
  %sub.ptr.sub17 = sub i64 %sub.ptr.lhs.cast15, %sub.ptr.rhs.cast16
  %call18 = call i64 @spt_min(i64 noundef 256, i64 noundef %sub.ptr.sub17)
  call void @llvm.memset.p0.i64(ptr align 1 %10, i8 0, i64 %call18, i1 false)
  br label %if.end19

if.end19:                                         ; preds = %if.else14, %if.then13
  %13 = load i32, ptr %len, align 4
  %conv = sext i32 %13 to i64
  %14 = load ptr, ptr getelementptr inbounds (%struct.anon, ptr @SPT, i32 0, i32 2), align 8
  %15 = load ptr, ptr getelementptr inbounds (%struct.anon, ptr @SPT, i32 0, i32 1), align 8
  %sub.ptr.lhs.cast20 = ptrtoint ptr %14 to i64
  %sub.ptr.rhs.cast21 = ptrtoint ptr %15 to i64
  %sub.ptr.sub22 = sub i64 %sub.ptr.lhs.cast20, %sub.ptr.rhs.cast21
  %call23 = call i64 @spt_min(i64 noundef 256, i64 noundef %sub.ptr.sub22)
  %sub = sub i64 %call23, 1
  %call24 = call i64 @spt_min(i64 noundef %conv, i64 noundef %sub)
  %conv25 = trunc i64 %call24 to i32
  store i32 %conv25, ptr %len, align 4
  %16 = load ptr, ptr getelementptr inbounds (%struct.anon, ptr @SPT, i32 0, i32 1), align 8
  %arraydecay26 = getelementptr inbounds [256 x i8], ptr %buf, i64 0, i64 0
  %17 = load i32, ptr %len, align 4
  %conv27 = sext i32 %17 to i64
  call void @llvm.memcpy.p0.p0.i64(ptr align 1 %16, ptr align 16 %arraydecay26, i64 %conv27, i1 false)
  %18 = load ptr, ptr getelementptr inbounds (%struct.anon, ptr @SPT, i32 0, i32 1), align 8
  %19 = load i32, ptr %len, align 4
  %idxprom = sext i32 %19 to i64
  %arrayidx = getelementptr inbounds i8, ptr %18, i64 %idxprom
  store ptr %arrayidx, ptr %nul, align 8
  %20 = load ptr, ptr %nul, align 8
  %21 = load ptr, ptr getelementptr inbounds (%struct.anon, ptr @SPT, i32 0, i32 3), align 8
  %cmp28 = icmp ult ptr %20, %21
  br i1 %cmp28, label %if.then30, label %if.else31

if.then30:                                        ; preds = %if.end19
  %22 = load ptr, ptr getelementptr inbounds (%struct.anon, ptr @SPT, i32 0, i32 3), align 8
  store i8 46, ptr %22, align 1
  br label %if.end39

if.else31:                                        ; preds = %if.end19
  %23 = load ptr, ptr %nul, align 8
  %24 = load ptr, ptr getelementptr inbounds (%struct.anon, ptr @SPT, i32 0, i32 3), align 8
  %cmp32 = icmp eq ptr %23, %24
  br i1 %cmp32, label %land.lhs.true, label %if.end38

land.lhs.true:                                    ; preds = %if.else31
  %25 = load ptr, ptr %nul, align 8
  %arrayidx34 = getelementptr inbounds i8, ptr %25, i64 1
  %26 = load ptr, ptr getelementptr inbounds (%struct.anon, ptr @SPT, i32 0, i32 2), align 8
  %cmp35 = icmp ult ptr %arrayidx34, %26
  br i1 %cmp35, label %if.then37, label %if.end38

if.then37:                                        ; preds = %land.lhs.true
  %27 = load ptr, ptr getelementptr inbounds (%struct.anon, ptr @SPT, i32 0, i32 3), align 8
  store i8 32, ptr %27, align 1
  %28 = load ptr, ptr %nul, align 8
  %incdec.ptr = getelementptr inbounds i8, ptr %28, i32 1
  store ptr %incdec.ptr, ptr %nul, align 8
  store i8 0, ptr %incdec.ptr, align 1
  br label %if.end38

if.end38:                                         ; preds = %if.then37, %land.lhs.true, %if.else31
  br label %if.end39

if.end39:                                         ; preds = %if.end38, %if.then30
  br label %return

error40:                                          ; preds = %if.then9
  %29 = load i32, ptr %error, align 4
  store i32 %29, ptr getelementptr inbounds (%struct.anon, ptr @SPT, i32 0, i32 5), align 4
  br label %return

return:                                           ; preds = %error40, %if.end39, %if.then
  ret void
}