; Function Attrs: nofree nounwind uwtable
define dso_local void @setproctitle(ptr noundef readonly %fmt, ...) local_unnamed_addr #5 {
entry:
  %buf = alloca [256 x i8], align 16
  %ap = alloca [1 x %struct.__va_list_tag], align 16
  %0 = load ptr, ptr @SPT.1, align 8
  %tobool.not = icmp eq ptr %0, null
  br i1 %tobool.not, label %return, label %if.end

if.end:                                           ; preds = %entry
  %tobool1.not = icmp eq ptr %fmt, null
  br i1 %tobool1.not, label %if.else, label %if.then2

if.then2:                                         ; preds = %if.end
  call void @llvm.va_start.p0(ptr nonnull %ap)
  %call = call i32 @vsnprintf(ptr noundef nonnull %buf, i64 noundef 256, ptr noundef nonnull %fmt, ptr noundef nonnull %ap) #13
  call void @llvm.va_end.p0(ptr nonnull %ap)
  br label %if.end8

if.else:                                          ; preds = %if.end
  %1 = load ptr, ptr @SPT.0, align 8
  %call7 = call i32 (ptr, i64, ptr, ...) @snprintf(ptr noundef nonnull dereferenceable(1) %buf, i64 noundef 256, ptr noundef nonnull @.str, ptr noundef %1) #13
  br label %if.end8

if.end8:                                          ; preds = %if.else, %if.then2
  %len.0 = phi i32 [ %call, %if.then2 ], [ %call7, %if.else ]
  %cmp = icmp slt i32 %len.0, 1
  br i1 %cmp, label %return, label %if.end11

if.end11:                                         ; preds = %if.end8
  %.b8 = load i1, ptr @SPT.4, align 8
  %2 = load ptr, ptr @SPT.1, align 8
  %3 = load ptr, ptr @SPT.2, align 8
  %sub.ptr.lhs.cast15 = ptrtoint ptr %3 to i64
  %sub.ptr.rhs.cast16 = ptrtoint ptr %2 to i64
  %sub.ptr.sub17 = sub i64 %sub.ptr.lhs.cast15, %sub.ptr.rhs.cast16
  br i1 %.b8, label %if.else14, label %if.then13

if.then13:                                        ; preds = %if.end11
  call void @llvm.memset.p0.i64(ptr align 1 %2, i8 0, i64 %sub.ptr.sub17, i1 false)
  store i1 true, ptr @SPT.4, align 8
  %.pre = call noundef i64 @llvm.umin.i64(i64 %sub.ptr.sub17, i64 256)
  br label %if.end19

if.else14:                                        ; preds = %if.end11
  %cond.i = call noundef i64 @llvm.umin.i64(i64 %sub.ptr.sub17, i64 256)
  call void @llvm.memset.p0.i64(ptr align 1 %2, i8 0, i64 %cond.i, i1 false)
  br label %if.end19

if.end19:                                         ; preds = %if.else14, %if.then13
  %cond.i9.pre-phi = phi i64 [ %cond.i, %if.else14 ], [ %.pre, %if.then13 ]
  %conv = zext nneg i32 %len.0 to i64
  %sub = add nsw i64 %cond.i9.pre-phi, -1
  %cond.i10 = call noundef i64 @llvm.umin.i64(i64 %conv, i64 %sub)
  call void @llvm.memcpy.p0.p0.i64(ptr align 1 %2, ptr nonnull align 16 %buf, i64 %cond.i10, i1 false)
  %arrayidx = getelementptr inbounds i8, ptr %2, i64 %cond.i10
  %4 = load ptr, ptr @SPT.3, align 8
  %cmp28 = icmp ult ptr %arrayidx, %4
  br i1 %cmp28, label %if.then30, label %if.else31

if.then30:                                        ; preds = %if.end19
  store i8 46, ptr %4, align 1
  br label %return

if.else31:                                        ; preds = %if.end19
  %cmp32 = icmp eq ptr %arrayidx, %4
  br i1 %cmp32, label %land.lhs.true, label %return

land.lhs.true:                                    ; preds = %if.else31
  %arrayidx34 = getelementptr inbounds i8, ptr %arrayidx, i64 1
  %cmp35 = icmp ult ptr %arrayidx34, %3
  br i1 %cmp35, label %if.then37, label %return

if.then37:                                        ; preds = %land.lhs.true
  store i8 32, ptr %arrayidx, align 1
  store i8 0, ptr %arrayidx34, align 1
  br label %return

return:                                           ; preds = %if.end8, %if.then30, %if.then37, %land.lhs.true, %if.else31, %entry
  ret void
}